target datalayout = "e-m:e-p270:32:32-p271:32:32-p272:64:64-i64:64-i128:128-f80:128-n8:16:32:64-S128"
target triple = "x86_64-pc-linux-gnu"

; Function Attrs: nounwind uwtable
define i32 @dtls_raw_hello_verify_request(ptr noundef %0, ptr noundef %1, i64 noundef %2) #0 {
  %4 = alloca i32, align 4
  %5 = alloca ptr, align 8
  %6 = alloca ptr, align 8
  %7 = alloca i64, align 8
  store ptr %0, ptr %5, align 8, !tbaa !145
  store ptr %1, ptr %6, align 8, !tbaa !168
  store i64 %2, ptr %7, align 8, !tbaa !9
  %8 = load ptr, ptr %5, align 8, !tbaa !145
  %9 = call i32 @WPACKET_put_bytes__(ptr noundef %8, i64 noundef 65279, i64 noundef 2)
  %10 = icmp ne i32 %9, 0
  br i1 %10, label %11, label %17

11:                                               ; preds = %3
  %12 = load ptr, ptr %5, align 8, !tbaa !145
  %13 = load ptr, ptr %6, align 8, !tbaa !168
  %14 = load i64, ptr %7, align 8, !tbaa !9
  %15 = call i32 @WPACKET_sub_memcpy__(ptr noundef %12, ptr noundef %13, i64 noundef %14, i64 noundef 1)
  %16 = icmp ne i32 %15, 0
  br i1 %16, label %18, label %17

17:                                               ; preds = %11, %3
  store i32 0, ptr %4, align 4
  br label %19

18:                                               ; preds = %11
  store i32 1, ptr %4, align 4
  br label %19

19:                                               ; preds = %18, %17
  %20 = load i32, ptr %4, align 4
  ret i32 %20
}