; Function Attrs: nounwind uwtable
define range(i32 0, 2) i32 @dtls_raw_hello_verify_request(ptr noundef %0, ptr noundef %1, i64 noundef %2) local_unnamed_addr #1 {
  %4 = tail call i32 @WPACKET_put_bytes__(ptr noundef %0, i64 noundef 65279, i64 noundef 2) #12
  %.not = icmp eq i32 %4, 0
  br i1 %.not, label %7, label %5

5:                                                ; preds = %3
  %6 = tail call i32 @WPACKET_sub_memcpy__(ptr noundef %0, ptr noundef %1, i64 noundef %2, i64 noundef 1) #12
  %.not4 = icmp ne i32 %6, 0
  %spec.select = zext i1 %.not4 to i32
  br label %7

7:                                                ; preds = %5, %3
  %.0 = phi i32 [ 0, %3 ], [ %spec.select, %5 ]
  ret i32 %.0
}